(iblock
BlockParser
p0
(dp1
S'nonce'
p2
I1573057331
sS'heuristic'
p3
S'sequential'
p4
sS'heur_6ci_324_3'
p5
(dp6
S'n_users'
p7
I29859910
sS'blk_max'
p8
I420000
sS'transactions'
p9
(lp10
(V2d05f0c9c3e1c226e63b5fac240137687544cf631cd616fd34fd188fc9020866
p11
F0.0
I268
(lp12
(I0
F50.0
tp13
a(lp14
(I100
F50.0
tp15
atp16
assS'hash'
p17
V000000007bc154e0fa7ea32218a72fe2c1bb9f86cf8c9ebf9a715ed27fdb229a
p18
sS'block_id'
p19
I100
sS'transactions'
p20
(lp21
(g11
F0.0
F268.0
(lp22
(I0
F50.0
tp23
a(lp24
(I100
F50.0
tp25
atp26
asS'merkle_root'
p27
V2d05f0c9c3e1c226e63b5fac240137687544cf631cd616fd34fd188fc9020866
p28
sS'previous_block'
p29
V00000000cd9b12643e6854cb25939b39cd7a1ad0af31a9bd8b2efe67854b1995
p30
sS'heur_7ci_324_3'
p31
(dp32
S'n_users'
p33
I29859910
sS'blk_max'
p34
I420000
sS'transactions'
p35
(lp36
(g11
F0.0
I268
(lp37
(I0
F50.0
tp38
a(lp39
(I100
F50.0
tp40
atp41
assS'difficulty'
p42
F1.0
sS'total_btc'
p43
F5000.0
sS'no_transactions'
p44
I1
sS'generation_fees'
p45
F0.0
sS'time'
p46
S'2009-01-11 08:00:25'
p47
sS'generation_amount'
p48
F50.0
sS'heur_0'
p49
(dp50
S'n_users'
p51
I159658259
sS'new_elements'
p52
(dp53
g11
(lp54
I0
assS'blk_max'
p55
I420000
sS'transactions'
p56
(lp57
(g11
F0.0
F268.0
(lp58
(I0
F50.0
tp59
a(lp60
(I100
F50.0
tp61
atp62
assS'heuristic_max_blk'
p63
I1
sS'heur_1'
p64
(dp65
S'n_users'
p66
I68264281
sS'blk_max'
p67
I420000
sS'transactions'
p68
(lp69
(g11
F0.0
I268
(lp70
(I0
F50.0
tp71
a(lp72
(I100
F50.0
tp73
atp74
assS'next_block'
p75
V00000000b69bd8e4dc60580117617a466d5c76ada85fb7b87e9baea01f9d9984
p76
sb.