(iblock
BlockParser
p0
(dp1
S'nonce'
p2
I2177414145
sS'heuristic'
p3
S'sequential'
p4
sS'heur_6ci_324_3'
p5
(dp6
S'n_users'
p7
I29859910
sS'blk_max'
p8
I420000
sS'transactions'
p9
(lp10
(Vabde5e83fc1973fd042c56c8cb41b6c739f3e50678d1fa2f99f0a409e4aa80c7
p11
F0.0
I270
(lp12
(I0
F50.0
tp13
a(lp14
(I110
F50.0
tp15
atp16
assS'hash'
p17
V00000000a30e366158a1813a6fda9f913497000a68f1c008b9f935b866cee55b
p18
sS'block_id'
p19
I110
sS'transactions'
p20
(lp21
(g11
F0.0
F270.0
(lp22
(I0
F50.0
tp23
a(lp24
(I110
F50.0
tp25
atp26
asS'merkle_root'
p27
Vabde5e83fc1973fd042c56c8cb41b6c739f3e50678d1fa2f99f0a409e4aa80c7
p28
sS'previous_block'
p29
V000000003f5dccc4e0bdac7081755b9d9ee17e7737316202b900d1c567c5abae
p30
sS'heur_7ci_324_3'
p31
(dp32
S'n_users'
p33
I29859910
sS'blk_max'
p34
I420000
sS'transactions'
p35
(lp36
(g11
F0.0
I270
(lp37
(I0
F50.0
tp38
a(lp39
(I110
F50.0
tp40
atp41
assS'difficulty'
p42
F1.0
sS'total_btc'
p43
F5500.0
sS'no_transactions'
p44
I1
sS'generation_fees'
p45
F0.0
sS'time'
p46
S'2009-01-11 10:12:19'
p47
sS'generation_amount'
p48
F50.0
sS'heur_0'
p49
(dp50
S'n_users'
p51
I159658259
sS'new_elements'
p52
(dp53
g11
(lp54
I0
assS'blk_max'
p55
I420000
sS'transactions'
p56
(lp57
(g11
F0.0
F270.0
(lp58
(I0
F50.0
tp59
a(lp60
(I110
F50.0
tp61
atp62
assS'heuristic_max_blk'
p63
I1
sS'heur_1'
p64
(dp65
S'n_users'
p66
I68264281
sS'blk_max'
p67
I420000
sS'transactions'
p68
(lp69
(g11
F0.0
I270
(lp70
(I0
F50.0
tp71
a(lp72
(I110
F50.0
tp73
atp74
assS'next_block'
p75
V000000004d6a6dd8b882deec7b54421949dddd2c166bd51ee7f62a52091a6c35
p76
sb.